target datalayout = "e-m:e-p270:32:32-p271:32:32-p272:64:64-i64:64-i128:128-f80:128-n8:16:32:64-S128"
target triple = "x86_64-pc-linux-gnu"

@glad_glColorMask = global ptr null, align 8

; Function Attrs: nounwind uwtable
define void @rlColorMask(i1 noundef zeroext %0, i1 noundef zeroext %1, i1 noundef zeroext %2, i1 noundef zeroext %3) #0 {
  %5 = alloca i8, align 1
  %6 = alloca i8, align 1
  %7 = alloca i8, align 1
  %8 = alloca i8, align 1
  %9 = zext i1 %0 to i8
  store i8 %9, ptr %5, align 1
  %10 = zext i1 %1 to i8
  store i8 %10, ptr %6, align 1
  %11 = zext i1 %2 to i8
  store i8 %11, ptr %7, align 1
  %12 = zext i1 %3 to i8
  store i8 %12, ptr %8, align 1
  %13 = load ptr, ptr @glad_glColorMask, align 8
  %14 = load i8, ptr %5, align 1, !range !3, !noundef !4
  %15 = trunc i8 %14 to i1
  %16 = zext i1 %15 to i8
  %17 = load i8, ptr %6, align 1, !range !3, !noundef !4
  %18 = trunc i8 %17 to i1
  %19 = zext i1 %18 to i8
  %20 = load i8, ptr %7, align 1, !range !3, !noundef !4
  %21 = trunc i8 %20 to i1
  %22 = zext i1 %21 to i8
  %23 = load i8, ptr %8, align 1, !range !3, !noundef !4
  %24 = trunc i8 %23 to i1
  %25 = zext i1 %24 to i8
  call void %13(i8 noundef zeroext %16, i8 noundef zeroext %19, i8 noundef zeroext %22, i8 noundef zeroext %25)
  ret void
}