; Function Attrs: nounwind uwtable
define void @rlColorMask(i1 noundef zeroext %0, i1 noundef zeroext %1, i1 noundef zeroext %2, i1 noundef zeroext %3) local_unnamed_addr #0 {
  %5 = zext i1 %0 to i8
  %6 = zext i1 %1 to i8
  %7 = zext i1 %2 to i8
  %8 = zext i1 %3 to i8
  %9 = load ptr, ptr @glad_glColorMask, align 8
  tail call void %9(i8 noundef zeroext %5, i8 noundef zeroext %6, i8 noundef zeroext %7, i8 noundef zeroext %8) #56
  ret void
}